; Function Attrs: nounwind uwtable
define i32 @Hop_ManCleanup(ptr noundef %0) local_unnamed_addr #0 {
  %2 = getelementptr i8, ptr %0, i64 88
  %.val20 = load i32, ptr %2, align 8, !tbaa !33
  %3 = getelementptr i8, ptr %0, i64 92
  %.val21 = load i32, ptr %3, align 4, !tbaa !33
  %4 = tail call noalias dereferenceable_or_null(16) ptr @malloc(i64 noundef 16) #13
  %5 = getelementptr inbounds nuw i8, ptr %4, i64 4
  store i32 0, ptr %5, align 4, !tbaa !15
  store i32 100, ptr %4, align 8, !tbaa !17
  %6 = tail call noalias dereferenceable_or_null(800) ptr @malloc(i64 noundef 800) #13
  %7 = getelementptr inbounds nuw i8, ptr %4, i64 8
  store ptr %6, ptr %7, align 8, !tbaa !18
  %8 = getelementptr inbounds nuw i8, ptr %0, i64 112
  %9 = load i32, ptr %8, align 8, !tbaa !28
  %10 = icmp sgt i32 %9, 0
  br i1 %10, label %.lr.ph, label %.critedge

.lr.ph:                                           ; preds = %1
  %11 = getelementptr inbounds nuw i8, ptr %0, i64 104
  br label %13

.preheader:                                       ; preds = %51
  %.pre33.pre = load ptr, ptr %7, align 8, !tbaa !18
  %12 = icmp sgt i32 %54, 0
  br i1 %12, label %.lr.ph27, label %.critedge

.lr.ph27:                                         ; preds = %.preheader
  %wide.trip.count = zext nneg i32 %54 to i64
  br label %57

13:                                               ; preds = %.lr.ph, %51
  %14 = phi i32 [ %9, %.lr.ph ], [ %52, %51 ]
  %15 = phi i32 [ 100, %.lr.ph ], [ %53, %51 ]
  %16 = phi i32 [ 0, %.lr.ph ], [ %54, %51 ]
  %indvars.iv = phi i64 [ 0, %.lr.ph ], [ %indvars.iv.next, %51 ]
  %17 = load ptr, ptr %11, align 8, !tbaa !29
  %18 = getelementptr inbounds nuw ptr, ptr %17, i64 %indvars.iv
  %19 = load ptr, ptr %18, align 8, !tbaa !22
  %20 = icmp eq ptr %19, null
  br i1 %20, label %51, label %21

21:                                               ; preds = %13
  %22 = getelementptr i8, ptr %19, i64 32
  %.val24 = load i32, ptr %22, align 8
  %23 = icmp ult i32 %.val24, 64
  br i1 %23, label %24, label %51

24:                                               ; preds = %21
  %25 = icmp eq i32 %16, %15
  br i1 %25, label %26, label %.Vec_PtrGrow.exit11_crit_edge.i

.Vec_PtrGrow.exit11_crit_edge.i:                  ; preds = %24
  %.pre.i = load ptr, ptr %7, align 8, !tbaa !18
  br label %Vec_PtrPush.exit

26:                                               ; preds = %24
  %27 = icmp slt i32 %15, 16
  br i1 %27, label %28, label %35

28:                                               ; preds = %26
  %29 = load ptr, ptr %7, align 8, !tbaa !18
  %.not9.i.i = icmp eq ptr %29, null
  br i1 %.not9.i.i, label %32, label %30

30:                                               ; preds = %28
  %31 = tail call dereferenceable_or_null(128) ptr @realloc(ptr noundef nonnull %29, i64 noundef 128) #15
  br label %Vec_PtrGrow.exit.i

32:                                               ; preds = %28
  %33 = tail call noalias dereferenceable_or_null(128) ptr @malloc(i64 noundef 128) #13
  br label %Vec_PtrGrow.exit.i

Vec_PtrGrow.exit.i:                               ; preds = %32, %30
  %34 = phi ptr [ %31, %30 ], [ %33, %32 ]
  store ptr %34, ptr %7, align 8, !tbaa !18
  store i32 16, ptr %4, align 8, !tbaa !17
  br label %Vec_PtrPush.exit

35:                                               ; preds = %26
  %36 = shl nuw nsw i32 %15, 1
  %37 = load ptr, ptr %7, align 8, !tbaa !18
  %.not9.i10.i = icmp eq ptr %37, null
  %38 = zext nneg i32 %36 to i64
  %39 = shl nuw nsw i64 %38, 3
  br i1 %.not9.i10.i, label %42, label %40

40:                                               ; preds = %35
  %41 = tail call ptr @realloc(ptr noundef nonnull %37, i64 noundef %39) #15
  br label %44

42:                                               ; preds = %35
  %43 = tail call noalias ptr @malloc(i64 noundef %39) #13
  br label %44

44:                                               ; preds = %42, %40
  %45 = phi ptr [ %41, %40 ], [ %43, %42 ]
  store ptr %45, ptr %7, align 8, !tbaa !18
  store i32 %36, ptr %4, align 8, !tbaa !17
  br label %Vec_PtrPush.exit

Vec_PtrPush.exit:                                 ; preds = %.Vec_PtrGrow.exit11_crit_edge.i, %Vec_PtrGrow.exit.i, %44
  %46 = phi i32 [ %15, %.Vec_PtrGrow.exit11_crit_edge.i ], [ %36, %44 ], [ 16, %Vec_PtrGrow.exit.i ]
  %47 = phi ptr [ %.pre.i, %.Vec_PtrGrow.exit11_crit_edge.i ], [ %45, %44 ], [ %34, %Vec_PtrGrow.exit.i ]
  %48 = add nsw i32 %16, 1
  store i32 %48, ptr %5, align 4, !tbaa !15
  %49 = sext i32 %16 to i64
  %50 = getelementptr inbounds ptr, ptr %47, i64 %49
  store ptr %19, ptr %50, align 8, !tbaa !24
  %.pre = load i32, ptr %8, align 8, !tbaa !28
  br label %51

51:                                               ; preds = %13, %Vec_PtrPush.exit, %21
  %52 = phi i32 [ %14, %13 ], [ %.pre, %Vec_PtrPush.exit ], [ %14, %21 ]
  %53 = phi i32 [ %15, %13 ], [ %46, %Vec_PtrPush.exit ], [ %15, %21 ]
  %54 = phi i32 [ %16, %13 ], [ %48, %Vec_PtrPush.exit ], [ %16, %21 ]
  %indvars.iv.next = add nuw nsw i64 %indvars.iv, 1
  %55 = sext i32 %52 to i64
  %56 = icmp slt i64 %indvars.iv.next, %55
  br i1 %56, label %13, label %.preheader, !llvm.loop !39

57:                                               ; preds = %.lr.ph27, %57
  %indvars.iv29 = phi i64 [ 0, %.lr.ph27 ], [ %indvars.iv.next30, %57 ]
  %58 = getelementptr inbounds nuw ptr, ptr %.pre33.pre, i64 %indvars.iv29
  %59 = load ptr, ptr %58, align 8, !tbaa !24
  tail call void @Hop_ObjDelete_rec(ptr noundef %0, ptr noundef %59) #14
  %indvars.iv.next30 = add nuw nsw i64 %indvars.iv29, 1
  %exitcond.not = icmp eq i64 %indvars.iv.next30, %wide.trip.count
  br i1 %exitcond.not, label %.critedge.thread, label %57, !llvm.loop !41

.critedge:                                        ; preds = %1, %.preheader
  %.pre3337 = phi ptr [ %.pre33.pre, %.preheader ], [ %6, %1 ]
  %.not.i = icmp eq ptr %.pre3337, null
  br i1 %.not.i, label %Vec_PtrFree.exit, label %.critedge.thread

.critedge.thread:                                 ; preds = %57, %.critedge
  %.pre333740 = phi ptr [ %.pre3337, %.critedge ], [ %.pre33.pre, %57 ]
  tail call void @free(ptr noundef nonnull %.pre333740) #14
  br label %Vec_PtrFree.exit

Vec_PtrFree.exit:                                 ; preds = %.critedge, %.critedge.thread
  tail call void @free(ptr noundef nonnull %4) #14
  %.val22 = load i32, ptr %2, align 8, !tbaa !33
  %.val23 = load i32, ptr %3, align 4, !tbaa !33
  %.neg = add i32 %.val21, %.val20
  %60 = add i32 %.val22, %.val23
  %61 = sub i32 %.neg, %60
  ret i32 %61
}